#include <math.h>
#include <stdio.h>
#include <stdlib.h>
#include <string.h>


int main() {
	char zfc[256];
	int n,i;
	scanf("%d",&n);
	while(n--){
		scanf("%s",zfc);
		for(i=0;zfc[i]!='\0';i++){
			if(zfc[i]=='A'){
				zfc[i]='T';
			}
			else if(zfc[i]=='T'){
				zfc[i]='A';
			}
			else if(zfc[i]=='C'){
				zfc[i]='G';
			}
			else if(zfc[i]=='G'){
				zfc[i]='C';
			}
		}	
		printf("%s\n",zfc);
	}
return 0;
}

